target datalayout = "e-m:e-p270:32:32-p271:32:32-p272:64:64-i64:64-i128:128-f80:128-n8:16:32:64-S128"
target triple = "x86_64-unknown-linux-gnu"

%"class.icu_75::UObject" = type { ptr }
%"class.icu_75::RuleChain" = type { ptr, %"class.icu_75::UnicodeString", ptr, ptr, %"class.icu_75::UnicodeString", %"class.icu_75::UnicodeString", i8, i8, i32 }
%"class.icu_75::UnicodeString" = type { %"class.icu_75::Replaceable", %"union.icu_75::UnicodeString::StackBufferOrFields" }
%"class.icu_75::Replaceable" = type { %"class.icu_75::UObject" }
%"union.icu_75::UnicodeString::StackBufferOrFields" = type { %struct.anon.0, [32 x i8] }
%struct.anon.0 = type { i16, i32, i32, ptr }

; Function Attrs: mustprogress nounwind uwtable
define internal noundef signext i8 @_ZL9U_FAILURE10UErrorCode(i32 noundef %code) #0 {
entry:
  %code.addr = alloca i32, align 4
  store i32 %code, ptr %code.addr, align 4
  %0 = load i32, ptr %code.addr, align 4
  %cmp = icmp sgt i32 %0, 0
  %conv = zext i1 %cmp to i8
  ret i8 %conv
}

; Function Attrs: mustprogress uwtable
define noundef i32 @_ZNK6icu_759RuleChain11getKeywordsEiPNS_13UnicodeStringERi(ptr noundef nonnull align 8 dereferenceable(224) %this, i32 noundef %capacityOfKeywords, ptr noundef %keywords, ptr noundef nonnull align 4 dereferenceable(4) %arraySize) #1 align 2 {
entry:
  %retval = alloca i32, align 4
  %this.addr = alloca ptr, align 8
  %capacityOfKeywords.addr = alloca i32, align 4
  %keywords.addr = alloca ptr, align 8
  %arraySize.addr = alloca ptr, align 8
  store ptr %this, ptr %this.addr, align 8
  store i32 %capacityOfKeywords, ptr %capacityOfKeywords.addr, align 4
  store ptr %keywords, ptr %keywords.addr, align 8
  store ptr %arraySize, ptr %arraySize.addr, align 8
  %this1 = load ptr, ptr %this.addr, align 8
  %fInternalStatus = getelementptr inbounds %"class.icu_75::RuleChain", ptr %this1, i32 0, i32 8
  %0 = load i32, ptr %fInternalStatus, align 4
  %call = call noundef signext i8 @_ZL9U_FAILURE10UErrorCode(i32 noundef %0)
  %tobool = icmp ne i8 %call, 0
  br i1 %tobool, label %if.then, label %if.end

if.then:                                          ; preds = %entry
  %fInternalStatus2 = getelementptr inbounds %"class.icu_75::RuleChain", ptr %this1, i32 0, i32 8
  %1 = load i32, ptr %fInternalStatus2, align 4
  store i32 %1, ptr %retval, align 4
  br label %return

if.end:                                           ; preds = %entry
  %2 = load ptr, ptr %arraySize.addr, align 8
  %3 = load i32, ptr %2, align 4
  %4 = load i32, ptr %capacityOfKeywords.addr, align 4
  %sub = sub nsw i32 %4, 1
  %cmp = icmp slt i32 %3, %sub
  br i1 %cmp, label %if.then3, label %if.else

if.then3:                                         ; preds = %if.end
  %fKeyword = getelementptr inbounds %"class.icu_75::RuleChain", ptr %this1, i32 0, i32 1
  %5 = load ptr, ptr %keywords.addr, align 8
  %6 = load ptr, ptr %arraySize.addr, align 8
  %7 = load i32, ptr %6, align 4
  %inc = add nsw i32 %7, 1
  store i32 %inc, ptr %6, align 4
  %idxprom = sext i32 %7 to i64
  %arrayidx = getelementptr inbounds %"class.icu_75::UnicodeString", ptr %5, i64 %idxprom
  %call4 = call noundef nonnull align 8 dereferenceable(64) ptr @_ZN6icu_7513UnicodeStringaSERKS0_(ptr noundef nonnull align 8 dereferenceable(64) %arrayidx, ptr noundef nonnull align 8 dereferenceable(64) %fKeyword)
  br label %if.end5

if.else:                                          ; preds = %if.end
  store i32 15, ptr %retval, align 4
  br label %return

if.end5:                                          ; preds = %if.then3
  %fNext = getelementptr inbounds %"class.icu_75::RuleChain", ptr %this1, i32 0, i32 2
  %8 = load ptr, ptr %fNext, align 8
  %cmp6 = icmp ne ptr %8, null
  br i1 %cmp6, label %if.then7, label %if.else10

if.then7:                                         ; preds = %if.end5
  %fNext8 = getelementptr inbounds %"class.icu_75::RuleChain", ptr %this1, i32 0, i32 2
  %9 = load ptr, ptr %fNext8, align 8
  %10 = load i32, ptr %capacityOfKeywords.addr, align 4
  %11 = load ptr, ptr %keywords.addr, align 8
  %12 = load ptr, ptr %arraySize.addr, align 8
  %call9 = call noundef i32 @_ZNK6icu_759RuleChain11getKeywordsEiPNS_13UnicodeStringERi(ptr noundef nonnull align 8 dereferenceable(224) %9, i32 noundef %10, ptr noundef %11, ptr noundef nonnull align 4 dereferenceable(4) %12)
  store i32 %call9, ptr %retval, align 4
  br label %return

if.else10:                                        ; preds = %if.end5
  store i32 0, ptr %retval, align 4
  br label %return

return:                                           ; preds = %if.else10, %if.then7, %if.else, %if.then
  %13 = load i32, ptr %retval, align 4
  ret i32 %13
}