; Function Attrs: mustprogress uwtable
define noundef i32 @_ZNK6icu_759RuleChain11getKeywordsEiPNS_13UnicodeStringERi(ptr noundef nonnull align 8 dereferenceable(224) %this, i32 noundef %capacityOfKeywords, ptr noundef %keywords, ptr nocapture noundef nonnull align 4 dereferenceable(4) %arraySize) local_unnamed_addr #1 align 2 {
entry:
  %sub = add nsw i32 %capacityOfKeywords, -1
  br label %tailrecurse

tailrecurse:                                      ; preds = %if.then3, %entry
  %this.tr = phi ptr [ %this, %entry ], [ %2, %if.then3 ]
  %fInternalStatus = getelementptr inbounds i8, ptr %this.tr, i64 220
  %0 = load i32, ptr %fInternalStatus, align 4
  %cmp.i = icmp slt i32 %0, 1
  br i1 %cmp.i, label %if.end, label %return

if.end:                                           ; preds = %tailrecurse
  %1 = load i32, ptr %arraySize, align 4
  %cmp = icmp slt i32 %1, %sub
  br i1 %cmp, label %if.then3, label %return

if.then3:                                         ; preds = %if.end
  %fKeyword = getelementptr inbounds i8, ptr %this.tr, i64 8
  %inc = add nsw i32 %1, 1
  store i32 %inc, ptr %arraySize, align 4
  %idxprom = sext i32 %1 to i64
  %arrayidx = getelementptr inbounds %"class.icu_75::UnicodeString", ptr %keywords, i64 %idxprom
  %call4 = tail call noundef nonnull align 8 dereferenceable(64) ptr @_ZN6icu_7513UnicodeStringaSERKS0_(ptr noundef nonnull align 8 dereferenceable(64) %arrayidx, ptr noundef nonnull align 8 dereferenceable(64) %fKeyword)
  %fNext = getelementptr inbounds i8, ptr %this.tr, i64 72
  %2 = load ptr, ptr %fNext, align 8
  %cmp6.not = icmp eq ptr %2, null
  br i1 %cmp6.not, label %return, label %tailrecurse

return:                                           ; preds = %tailrecurse, %if.then3, %if.end
  %retval.0 = phi i32 [ 15, %if.end ], [ 0, %if.then3 ], [ %0, %tailrecurse ]
  ret i32 %retval.0
}